; Function Attrs: null_pointer_is_valid sspstrong uwtable
define internal i32 @dissect_pkt_ccc(ptr noundef %0, ptr noundef %1, ptr noundef %2, ptr noundef readnone captures(none) %3) #1 {
  %.not = icmp eq ptr %2, null
  br i1 %.not, label %.split, label %.split13

.split13:                                         ; preds = %4
  %5 = load i32, ptr @proto_pkt_ccc, align 4
  %6 = tail call ptr @proto_tree_add_item(ptr noundef nonnull %2, i32 noundef %5, ptr noundef %0, i32 noundef 0, i32 noundef 12, i32 noundef 0)
  %7 = load i32, ptr @ett_pkt_ccc, align 4
  %8 = tail call ptr @proto_item_add_subtree(ptr noundef %6, i32 noundef %7)
  %9 = load i32, ptr @hf_pkt_ccc_id, align 4
  %10 = tail call ptr @proto_tree_add_item(ptr noundef %8, i32 noundef %9, ptr noundef %0, i32 noundef 0, i32 noundef 4, i32 noundef 0)
  %11 = load i32, ptr @hf_pkt_ccc_ts, align 4
  %12 = tail call ptr @proto_tree_add_item(ptr noundef %8, i32 noundef %11, ptr noundef %0, i32 noundef 4, i32 noundef 8, i32 noundef 2)
  br label %.split

.split:                                           ; preds = %4, %.split13
  %.sink = phi ptr [ %2, %.split13 ], [ null, %4 ]
  %13 = tail call i32 @dissect_rtp(ptr noundef %0, ptr noundef %1, ptr noundef %.sink, ptr poison)
  ret i32 %13
}